; Function Attrs: nounwind uwtable
define hidden void @Wayland_SetWindowBordered(ptr noundef readonly captures(none) %0, ptr noundef readonly captures(none) %1, i1 noundef zeroext %2) local_unnamed_addr #0 {
  %4 = getelementptr inbounds nuw i8, ptr %1, i64 392
  %5 = load ptr, ptr %4, align 8
  %6 = getelementptr inbounds nuw i8, ptr %5, i64 88
  %7 = load i32, ptr %6, align 8
  %8 = icmp eq i32 %7, 1
  br i1 %8, label %9, label %23

9:                                                ; preds = %3
  %10 = getelementptr inbounds nuw i8, ptr %0, i64 1656
  %11 = load ptr, ptr %10, align 8
  %12 = getelementptr inbounds nuw i8, ptr %11, i64 112
  %13 = load ptr, ptr %12, align 8
  %.not = icmp eq ptr %13, null
  br i1 %.not, label %23, label %14

14:                                               ; preds = %9
  %15 = getelementptr inbounds nuw i8, ptr %5, i64 120
  %16 = load ptr, ptr %15, align 8
  %.not7 = icmp eq ptr %16, null
  br i1 %.not7, label %23, label %17

17:                                               ; preds = %14
  %18 = select i1 %2, i32 2, i32 1
  %19 = load ptr, ptr @WAYLAND_wl_proxy_marshal_flags, align 8
  %20 = load ptr, ptr @WAYLAND_wl_proxy_get_version, align 8
  %21 = tail call i32 %20(ptr noundef nonnull %16) #15
  %22 = tail call ptr (ptr, i32, ptr, i32, i32, ...) %19(ptr noundef nonnull %16, i32 noundef 1, ptr noundef null, i32 noundef %21, i32 noundef 0, i32 noundef range(i32 1, 3) %18) #15
  br label %23

23:                                               ; preds = %9, %14, %17, %3
  ret void
}